; ModuleID = '38/1714.c'
source_filename = "38/1714.c"
target datalayout = "e-m:e-p270:32:32-p271:32:32-p272:64:64-i64:64-f80:128-n8:16:32:64-S128"
target triple = "x86_64-pc-linux-gnu"

@.str = private unnamed_addr constant [3 x i8] c"%d\00", align 1
@.str.1 = private unnamed_addr constant [4 x i8] c"%lf\00", align 1
@.str.2 = private unnamed_addr constant [6 x i8] c"%.5f\0A\00", align 1

; Function Attrs: noinline nounwind uwtable
define dso_local double @fangcha(double* %0, i32 %1) #0 {
  %3 = alloca double*, align 8
  %4 = alloca i32, align 4
  %5 = alloca double, align 8
  %6 = alloca double, align 8
  %7 = alloca double, align 8
  %8 = alloca i32, align 4
  %9 = alloca double*, align 8
  store double* %0, double** %3, align 8
  store i32 %1, i32* %4, align 4
  store double 0.000000e+00, double* %5, align 8
  store double 0.000000e+00, double* %7, align 8
  %10 = load double*, double** %3, align 8
  store double* %10, double** %9, align 8
  store i32 0, i32* %8, align 4
  br label %11

11:                                               ; preds = %20, %2
  %12 = load i32, i32* %8, align 4
  %13 = load i32, i32* %4, align 4
  %14 = icmp slt i32 %12, %13
  br i1 %14, label %15, label %25

15:                                               ; preds = %11
  %16 = load double, double* %7, align 8
  %17 = load double*, double** %9, align 8
  %18 = load double, double* %17, align 8
  %19 = fadd double %16, %18
  store double %19, double* %7, align 8
  br label %20

20:                                               ; preds = %15
  %21 = load i32, i32* %8, align 4
  %22 = add nsw i32 %21, 1
  store i32 %22, i32* %8, align 4
  %23 = load double*, double** %9, align 8
  %24 = getelementptr inbounds double, double* %23, i32 1
  store double* %24, double** %9, align 8
  br label %11

25:                                               ; preds = %11
  %26 = load double, double* %7, align 8
  %27 = load i32, i32* %4, align 4
  %28 = sitofp i32 %27 to double
  %29 = fdiv double %26, %28
  store double %29, double* %7, align 8
  %30 = load double*, double** %3, align 8
  store double* %30, double** %9, align 8
  store i32 0, i32* %8, align 4
  br label %31

31:                                               ; preds = %47, %25
  %32 = load i32, i32* %8, align 4
  %33 = load i32, i32* %4, align 4
  %34 = icmp slt i32 %32, %33
  br i1 %34, label %35, label %52

35:                                               ; preds = %31
  %36 = load double, double* %5, align 8
  %37 = load double*, double** %9, align 8
  %38 = load double, double* %37, align 8
  %39 = load double, double* %7, align 8
  %40 = fsub double %38, %39
  %41 = load double*, double** %9, align 8
  %42 = load double, double* %41, align 8
  %43 = load double, double* %7, align 8
  %44 = fsub double %42, %43
  %45 = fmul double %40, %44
  %46 = fadd double %36, %45
  store double %46, double* %5, align 8
  br label %47

47:                                               ; preds = %35
  %48 = load i32, i32* %8, align 4
  %49 = add nsw i32 %48, 1
  store i32 %49, i32* %8, align 4
  %50 = load double*, double** %9, align 8
  %51 = getelementptr inbounds double, double* %50, i32 1
  store double* %51, double** %9, align 8
  br label %31

52:                                               ; preds = %31
  %53 = load double, double* %5, align 8
  %54 = load i32, i32* %4, align 4
  %55 = sitofp i32 %54 to double
  %56 = fdiv double %53, %55
  %57 = call double @sqrt(double %56) #3
  store double %57, double* %6, align 8
  %58 = load double, double* %6, align 8
  ret double %58
}

; Function Attrs: nounwind
declare dso_local double @sqrt(double) #1

; Function Attrs: noinline nounwind uwtable
define dso_local i32 @main(i32 %0, i8** %1) #0 {
  %3 = alloca i32, align 4
  %4 = alloca i32, align 4
  %5 = alloca i8**, align 8
  %6 = alloca i32, align 4
  %7 = alloca i32, align 4
  %8 = alloca i32, align 4
  %9 = alloca i32, align 4
  %10 = alloca [1000 x double], align 16
  store i32 0, i32* %3, align 4
  store i32 %0, i32* %4, align 4
  store i8** %1, i8*** %5, align 8
  %11 = call i32 (i8*, ...) @__isoc99_scanf(i8* getelementptr inbounds ([3 x i8], [3 x i8]* @.str, i64 0, i64 0), i32* %6)
  store i32 0, i32* %7, align 4
  br label %12

12:                                               ; preds = %35, %2
  %13 = load i32, i32* %7, align 4
  %14 = load i32, i32* %6, align 4
  %15 = icmp slt i32 %13, %14
  br i1 %15, label %16, label %38

16:                                               ; preds = %12
  %17 = call i32 (i8*, ...) @__isoc99_scanf(i8* getelementptr inbounds ([3 x i8], [3 x i8]* @.str, i64 0, i64 0), i32* %8)
  store i32 0, i32* %9, align 4
  br label %18

18:                                               ; preds = %27, %16
  %19 = load i32, i32* %9, align 4
  %20 = load i32, i32* %8, align 4
  %21 = icmp slt i32 %19, %20
  br i1 %21, label %22, label %30

22:                                               ; preds = %18
  %23 = load i32, i32* %9, align 4
  %24 = sext i32 %23 to i64
  %25 = getelementptr inbounds [1000 x double], [1000 x double]* %10, i64 0, i64 %24
  %26 = call i32 (i8*, ...) @__isoc99_scanf(i8* getelementptr inbounds ([4 x i8], [4 x i8]* @.str.1, i64 0, i64 0), double* %25)
  br label %27

27:                                               ; preds = %22
  %28 = load i32, i32* %9, align 4
  %29 = add nsw i32 %28, 1
  store i32 %29, i32* %9, align 4
  br label %18

30:                                               ; preds = %18
  %31 = getelementptr inbounds [1000 x double], [1000 x double]* %10, i64 0, i64 0
  %32 = load i32, i32* %8, align 4
  %33 = call double @fangcha(double* %31, i32 %32)
  %34 = call i32 (i8*, ...) @printf(i8* getelementptr inbounds ([6 x i8], [6 x i8]* @.str.2, i64 0, i64 0), double %33)
  br label %35

35:                                               ; preds = %30
  %36 = load i32, i32* %7, align 4
  %37 = add nsw i32 %36, 1
  store i32 %37, i32* %7, align 4
  br label %12

38:                                               ; preds = %12
  ret i32 0
}

declare dso_local i32 @__isoc99_scanf(i8*, ...) #2

declare dso_local i32 @printf(i8*, ...) #2


!llvm.module.flags = !{!0}
!llvm.ident = !{!1}

!0 = !{i32 1, !"wchar_size", i32 4}
!1 = !{!"clang version 10.0.0-4ubuntu1 "}
